target datalayout = "e-m:e-p270:32:32-p271:32:32-p272:64:64-i64:64-i128:128-f80:128-n8:16:32:64-S128"
target triple = "x86_64-pc-linux-gnu"

%struct.mbedtls_mps_reader = type { ptr, i64, i64, i64, i64, ptr, i64, i64, %union.anon }
%union.anon = type { i64 }

; Function Attrs: inlinehint nounwind uwtable
define internal i32 @mps_reader_is_producing(ptr noundef %0) #1 {
  %2 = alloca ptr, align 8
  %3 = alloca ptr, align 8
  store ptr %0, ptr %2, align 8, !tbaa !3
  call void @llvm.lifetime.start.p0(i64 8, ptr %3) #4
  %4 = load ptr, ptr %2, align 8, !tbaa !3
  %5 = getelementptr inbounds nuw %struct.mbedtls_mps_reader, ptr %4, i32 0, i32 0
  %6 = load ptr, ptr %5, align 8, !tbaa !18
  store ptr %6, ptr %3, align 8, !tbaa !8
  %7 = load ptr, ptr %3, align 8, !tbaa !8
  %8 = icmp eq ptr %7, null
  %9 = zext i1 %8 to i32
  call void @llvm.lifetime.end.p0(i64 8, ptr %3) #4
  ret i32 %9
}

; Function Attrs: inlinehint nounwind uwtable
define internal i64 @mps_reader_serving_from_accumulator(ptr noundef %0) #1 {
  %2 = alloca ptr, align 8
  %3 = alloca i64, align 8
  %4 = alloca i64, align 8
  store ptr %0, ptr %2, align 8, !tbaa !3
  call void @llvm.lifetime.start.p0(i64 8, ptr %3) #4
  call void @llvm.lifetime.start.p0(i64 8, ptr %4) #4
  %5 = load ptr, ptr %2, align 8, !tbaa !3
  %6 = call i64 @mps_reader_get_fragment_offset(ptr noundef %5)
  store i64 %6, ptr %3, align 8, !tbaa !10
  %7 = load ptr, ptr %2, align 8, !tbaa !3
  %8 = getelementptr inbounds nuw %struct.mbedtls_mps_reader, ptr %7, i32 0, i32 3
  %9 = load i64, ptr %8, align 8, !tbaa !21
  store i64 %9, ptr %4, align 8, !tbaa !10
  %10 = load i64, ptr %4, align 8, !tbaa !10
  %11 = load i64, ptr %3, align 8, !tbaa !10
  %12 = icmp ult i64 %10, %11
  %13 = zext i1 %12 to i32
  %14 = sext i32 %13 to i64
  call void @llvm.lifetime.end.p0(i64 8, ptr %4) #4
  call void @llvm.lifetime.end.p0(i64 8, ptr %3) #4
  ret i64 %14
}

; Function Attrs: inlinehint nounwind uwtable
define internal i64 @mps_reader_get_fragment_offset(ptr noundef %0) #1 {
  %2 = alloca i64, align 8
  %3 = alloca ptr, align 8
  %4 = alloca ptr, align 8
  %5 = alloca i64, align 8
  %6 = alloca i32, align 4
  store ptr %0, ptr %3, align 8, !tbaa !3
  call void @llvm.lifetime.start.p0(i64 8, ptr %4) #4
  %7 = load ptr, ptr %3, align 8, !tbaa !3
  %8 = getelementptr inbounds nuw %struct.mbedtls_mps_reader, ptr %7, i32 0, i32 5
  %9 = load ptr, ptr %8, align 8, !tbaa !12
  store ptr %9, ptr %4, align 8, !tbaa !8
  call void @llvm.lifetime.start.p0(i64 8, ptr %5) #4
  %10 = load ptr, ptr %4, align 8, !tbaa !8
  %11 = icmp eq ptr %10, null
  br i1 %11, label %12, label %13

12:                                               ; preds = %1
  store i64 0, ptr %2, align 8
  store i32 1, ptr %6, align 4
  br label %18

13:                                               ; preds = %1
  %14 = load ptr, ptr %3, align 8, !tbaa !3
  %15 = getelementptr inbounds nuw %struct.mbedtls_mps_reader, ptr %14, i32 0, i32 8
  %16 = load i64, ptr %15, align 8, !tbaa !16
  store i64 %16, ptr %5, align 8, !tbaa !10
  %17 = load i64, ptr %5, align 8, !tbaa !10
  store i64 %17, ptr %2, align 8
  store i32 1, ptr %6, align 4
  br label %18

18:                                               ; preds = %13, %12
  call void @llvm.lifetime.end.p0(i64 8, ptr %5) #4
  call void @llvm.lifetime.end.p0(i64 8, ptr %4) #4
  %19 = load i64, ptr %2, align 8
  ret i64 %19
}

; Function Attrs: inlinehint nounwind uwtable
define internal i32 @mps_reader_is_consuming(ptr noundef %0) #1 {
  %2 = alloca ptr, align 8
  store ptr %0, ptr %2, align 8, !tbaa !3
  %3 = load ptr, ptr %2, align 8, !tbaa !3
  %4 = call i32 @mps_reader_is_producing(ptr noundef %3)
  %5 = icmp ne i32 %4, 0
  %6 = xor i1 %5, true
  %7 = zext i1 %6 to i32
  ret i32 %7
}

; Function Attrs: nounwind uwtable
define hidden i32 @mbedtls_mps_reader_get(ptr noundef %0, i64 noundef %1, ptr noundef %2, ptr noundef %3) #0 {
  %5 = alloca i32, align 4
  %6 = alloca ptr, align 8
  %7 = alloca i64, align 8
  %8 = alloca ptr, align 8
  %9 = alloca ptr, align 8
  %10 = alloca ptr, align 8
  %11 = alloca i64, align 8
  %12 = alloca i64, align 8
  %13 = alloca i64, align 8
  %14 = alloca i64, align 8
  %15 = alloca i64, align 8
  %16 = alloca i32, align 4
  %17 = alloca ptr, align 8
  %18 = alloca i64, align 8
  store ptr %0, ptr %6, align 8, !tbaa !3
  store i64 %1, ptr %7, align 8, !tbaa !10
  store ptr %2, ptr %8, align 8, !tbaa !22
  store ptr %3, ptr %9, align 8, !tbaa !25
  call void @llvm.lifetime.start.p0(i64 8, ptr %10) #4
  call void @llvm.lifetime.start.p0(i64 8, ptr %11) #4
  call void @llvm.lifetime.start.p0(i64 8, ptr %12) #4
  call void @llvm.lifetime.start.p0(i64 8, ptr %13) #4
  call void @llvm.lifetime.start.p0(i64 8, ptr %14) #4
  call void @llvm.lifetime.start.p0(i64 8, ptr %15) #4
  br label %19

19:                                               ; preds = %4
  br label %20

20:                                               ; preds = %19
  br label %21

21:                                               ; preds = %20
  br label %22

22:                                               ; preds = %21
  br label %23

23:                                               ; preds = %22
  br label %24

24:                                               ; preds = %23
  br label %25

25:                                               ; preds = %24
  %26 = load ptr, ptr %6, align 8, !tbaa !3
  %27 = call i32 @mps_reader_is_consuming(ptr noundef %26)
  %28 = icmp ne i32 %27, 0
  br i1 %28, label %33, label %29

29:                                               ; preds = %25
  br label %30

30:                                               ; preds = %29
  br label %31

31:                                               ; preds = %30
  br label %32

32:                                               ; preds = %31
  store i32 -1, ptr %5, align 4
  store i32 1, ptr %16, align 4
  br label %151

33:                                               ; preds = %25
  br label %34

34:                                               ; preds = %33
  br label %35

35:                                               ; preds = %34
  %36 = load ptr, ptr %6, align 8, !tbaa !3
  %37 = getelementptr inbounds nuw %struct.mbedtls_mps_reader, ptr %36, i32 0, i32 3
  %38 = load i64, ptr %37, align 8, !tbaa !21
  store i64 %38, ptr %13, align 8, !tbaa !10
  %39 = load ptr, ptr %6, align 8, !tbaa !3
  %40 = call i64 @mps_reader_get_fragment_offset(ptr noundef %39)
  store i64 %40, ptr %12, align 8, !tbaa !10
  %41 = load ptr, ptr %6, align 8, !tbaa !3
  %42 = call i64 @mps_reader_serving_from_accumulator(ptr noundef %41)
  %43 = icmp ne i64 %42, 0
  br i1 %43, label %44, label %91

44:                                               ; preds = %35
  call void @llvm.lifetime.start.p0(i64 8, ptr %17) #4
  br label %45

45:                                               ; preds = %44
  br label %46

46:                                               ; preds = %45
  br label %47

47:                                               ; preds = %46
  %48 = load i64, ptr %12, align 8, !tbaa !10
  %49 = load i64, ptr %13, align 8, !tbaa !10
  %50 = sub i64 %48, %49
  %51 = load i64, ptr %7, align 8, !tbaa !10
  %52 = icmp ult i64 %50, %51
  br i1 %52, label %53, label %67

53:                                               ; preds = %47
  call void @llvm.lifetime.start.p0(i64 8, ptr %18) #4
  %54 = load ptr, ptr %6, align 8, !tbaa !3
  %55 = getelementptr inbounds nuw %struct.mbedtls_mps_reader, ptr %54, i32 0, i32 7
  %56 = load i64, ptr %55, align 8, !tbaa !17
  store i64 %56, ptr %18, align 8, !tbaa !10
  %57 = load i64, ptr %18, align 8, !tbaa !10
  %58 = load i64, ptr %13, align 8, !tbaa !10
  %59 = sub i64 %57, %58
  %60 = load i64, ptr %7, align 8, !tbaa !10
  %61 = icmp ne i64 %59, %60
  br i1 %61, label %62, label %63

62:                                               ; preds = %53
  store i32 -261, ptr %5, align 4
  store i32 1, ptr %16, align 4
  br label %64

63:                                               ; preds = %53
  store i32 0, ptr %16, align 4
  br label %64

64:                                               ; preds = %63, %62
  call void @llvm.lifetime.end.p0(i64 8, ptr %18) #4
  %65 = load i32, ptr %16, align 4
  switch i32 %65, label %90 [
    i32 0, label %66
  ]

66:                                               ; preds = %64
  br label %67

67:                                               ; preds = %66, %47
  %68 = load ptr, ptr %6, align 8, !tbaa !3
  %69 = getelementptr inbounds nuw %struct.mbedtls_mps_reader, ptr %68, i32 0, i32 5
  %70 = load ptr, ptr %69, align 8, !tbaa !12
  store ptr %70, ptr %17, align 8, !tbaa !8
  %71 = load i64, ptr %13, align 8, !tbaa !10
  %72 = load ptr, ptr %17, align 8, !tbaa !8
  %73 = getelementptr inbounds nuw i8, ptr %72, i64 %71
  store ptr %73, ptr %17, align 8, !tbaa !8
  %74 = load ptr, ptr %17, align 8, !tbaa !8
  %75 = load ptr, ptr %8, align 8, !tbaa !22
  store ptr %74, ptr %75, align 8, !tbaa !8
  %76 = load ptr, ptr %9, align 8, !tbaa !25
  %77 = icmp ne ptr %76, null
  br i1 %77, label %78, label %81

78:                                               ; preds = %67
  %79 = load i64, ptr %7, align 8, !tbaa !10
  %80 = load ptr, ptr %9, align 8, !tbaa !25
  store i64 %79, ptr %80, align 8, !tbaa !10
  br label %81

81:                                               ; preds = %78, %67
  %82 = load i64, ptr %7, align 8, !tbaa !10
  %83 = load i64, ptr %13, align 8, !tbaa !10
  %84 = add i64 %83, %82
  store i64 %84, ptr %13, align 8, !tbaa !10
  %85 = load i64, ptr %13, align 8, !tbaa !10
  %86 = load ptr, ptr %6, align 8, !tbaa !3
  %87 = getelementptr inbounds nuw %struct.mbedtls_mps_reader, ptr %86, i32 0, i32 3
  store i64 %85, ptr %87, align 8, !tbaa !21
  %88 = load ptr, ptr %6, align 8, !tbaa !3
  %89 = getelementptr inbounds nuw %struct.mbedtls_mps_reader, ptr %88, i32 0, i32 4
  store i64 0, ptr %89, align 8, !tbaa !27
  store i32 0, ptr %5, align 4
  store i32 1, ptr %16, align 4
  br label %90

90:                                               ; preds = %81, %64
  call void @llvm.lifetime.end.p0(i64 8, ptr %17) #4
  br label %151

91:                                               ; preds = %35
  br label %92

92:                                               ; preds = %91
  br label %93

93:                                               ; preds = %92
  br label %94

94:                                               ; preds = %93
  %95 = load ptr, ptr %6, align 8, !tbaa !3
  %96 = getelementptr inbounds nuw %struct.mbedtls_mps_reader, ptr %95, i32 0, i32 1
  %97 = load i64, ptr %96, align 8, !tbaa !19
  store i64 %97, ptr %11, align 8, !tbaa !10
  %98 = load i64, ptr %13, align 8, !tbaa !10
  %99 = load i64, ptr %12, align 8, !tbaa !10
  %100 = sub i64 %98, %99
  store i64 %100, ptr %14, align 8, !tbaa !10
  %101 = load i64, ptr %11, align 8, !tbaa !10
  %102 = load i64, ptr %14, align 8, !tbaa !10
  %103 = sub i64 %101, %102
  store i64 %103, ptr %15, align 8, !tbaa !10
  %104 = load i64, ptr %15, align 8, !tbaa !10
  %105 = load i64, ptr %7, align 8, !tbaa !10
  %106 = icmp ult i64 %104, %105
  br i1 %106, label %107, label %128

107:                                              ; preds = %94
  br label %108

108:                                              ; preds = %107
  br label %109

109:                                              ; preds = %108
  br label %110

110:                                              ; preds = %109
  %111 = load ptr, ptr %9, align 8, !tbaa !25
  %112 = icmp eq ptr %111, null
  br i1 %112, label %113, label %126

113:                                              ; preds = %110
  %114 = load i64, ptr %15, align 8, !tbaa !10
  %115 = icmp ugt i64 %114, 0
  br i1 %115, label %116, label %125

116:                                              ; preds = %113
  %117 = load i64, ptr %7, align 8, !tbaa !10
  %118 = load i64, ptr %15, align 8, !tbaa !10
  %119 = sub i64 %117, %118
  %120 = load ptr, ptr %6, align 8, !tbaa !3
  %121 = getelementptr inbounds nuw %struct.mbedtls_mps_reader, ptr %120, i32 0, i32 4
  store i64 %119, ptr %121, align 8, !tbaa !27
  br label %122

122:                                              ; preds = %116
  br label %123

123:                                              ; preds = %122
  br label %124

124:                                              ; preds = %123
  br label %125

125:                                              ; preds = %124, %113
  store i32 -260, ptr %5, align 4
  store i32 1, ptr %16, align 4
  br label %151

126:                                              ; preds = %110
  %127 = load i64, ptr %15, align 8, !tbaa !10
  store i64 %127, ptr %7, align 8, !tbaa !10
  br label %128

128:                                              ; preds = %126, %94
  %129 = load ptr, ptr %6, align 8, !tbaa !3
  %130 = getelementptr inbounds nuw %struct.mbedtls_mps_reader, ptr %129, i32 0, i32 0
  %131 = load ptr, ptr %130, align 8, !tbaa !18
  store ptr %131, ptr %10, align 8, !tbaa !8
  %132 = load i64, ptr %14, align 8, !tbaa !10
  %133 = load ptr, ptr %10, align 8, !tbaa !8
  %134 = getelementptr inbounds nuw i8, ptr %133, i64 %132
  store ptr %134, ptr %10, align 8, !tbaa !8
  %135 = load ptr, ptr %10, align 8, !tbaa !8
  %136 = load ptr, ptr %8, align 8, !tbaa !22
  store ptr %135, ptr %136, align 8, !tbaa !8
  %137 = load ptr, ptr %9, align 8, !tbaa !25
  %138 = icmp ne ptr %137, null
  br i1 %138, label %139, label %142

139:                                              ; preds = %128
  %140 = load i64, ptr %7, align 8, !tbaa !10
  %141 = load ptr, ptr %9, align 8, !tbaa !25
  store i64 %140, ptr %141, align 8, !tbaa !10
  br label %142

142:                                              ; preds = %139, %128
  %143 = load i64, ptr %7, align 8, !tbaa !10
  %144 = load i64, ptr %13, align 8, !tbaa !10
  %145 = add i64 %144, %143
  store i64 %145, ptr %13, align 8, !tbaa !10
  %146 = load i64, ptr %13, align 8, !tbaa !10
  %147 = load ptr, ptr %6, align 8, !tbaa !3
  %148 = getelementptr inbounds nuw %struct.mbedtls_mps_reader, ptr %147, i32 0, i32 3
  store i64 %146, ptr %148, align 8, !tbaa !21
  %149 = load ptr, ptr %6, align 8, !tbaa !3
  %150 = getelementptr inbounds nuw %struct.mbedtls_mps_reader, ptr %149, i32 0, i32 4
  store i64 0, ptr %150, align 8, !tbaa !27
  store i32 0, ptr %5, align 4
  store i32 1, ptr %16, align 4
  br label %151

151:                                              ; preds = %142, %125, %90, %32
  call void @llvm.lifetime.end.p0(i64 8, ptr %15) #4
  call void @llvm.lifetime.end.p0(i64 8, ptr %14) #4
  call void @llvm.lifetime.end.p0(i64 8, ptr %13) #4
  call void @llvm.lifetime.end.p0(i64 8, ptr %12) #4
  call void @llvm.lifetime.end.p0(i64 8, ptr %11) #4
  call void @llvm.lifetime.end.p0(i64 8, ptr %10) #4
  %152 = load i32, ptr %5, align 4
  ret i32 %152
}