; Function Attrs: mustprogress nofree norecurse nosync nounwind willreturn memory(argmem: readwrite) uwtable
define hidden range(i32 -261, 1) i32 @mbedtls_mps_reader_get(ptr noundef captures(none) %0, i64 noundef %1, ptr noundef writeonly captures(none) %2, ptr noundef writeonly %3) local_unnamed_addr #3 {
  %.val = load ptr, ptr %0, align 8, !tbaa !11
  %.not73 = icmp eq ptr %.val, null
  br i1 %.not73, label %42, label %5

5:                                                ; preds = %4
  %6 = getelementptr inbounds nuw i8, ptr %0, i64 24
  %7 = load i64, ptr %6, align 8, !tbaa !15
  %8 = getelementptr inbounds nuw i8, ptr %0, i64 40
  %9 = load ptr, ptr %8, align 8, !tbaa !3
  %10 = icmp eq ptr %9, null
  br i1 %10, label %mps_reader_serving_from_accumulator.exit.thread, label %mps_reader_serving_from_accumulator.exit

mps_reader_serving_from_accumulator.exit:         ; preds = %5
  %11 = getelementptr inbounds nuw i8, ptr %0, i64 64
  %12 = load i64, ptr %11, align 8, !tbaa !12
  %.not = icmp ult i64 %7, %12
  br i1 %.not, label %13, label %mps_reader_serving_from_accumulator.exit.thread

13:                                               ; preds = %mps_reader_serving_from_accumulator.exit
  %14 = sub nuw i64 %12, %7
  %15 = icmp ult i64 %14, %1
  br i1 %15, label %16, label %20

16:                                               ; preds = %13
  %17 = getelementptr inbounds nuw i8, ptr %0, i64 56
  %18 = load i64, ptr %17, align 8, !tbaa !13
  %19 = sub i64 %18, %7
  %.not61 = icmp eq i64 %19, %1
  br i1 %.not61, label %20, label %42

20:                                               ; preds = %16, %13
  %21 = getelementptr inbounds nuw i8, ptr %9, i64 %7
  store ptr %21, ptr %2, align 8, !tbaa !16
  %.not62 = icmp eq ptr %3, null
  br i1 %.not62, label %23, label %22

22:                                               ; preds = %20
  store i64 %1, ptr %3, align 8, !tbaa !17
  br label %23

23:                                               ; preds = %22, %20
  %24 = add i64 %7, %1
  store i64 %24, ptr %6, align 8, !tbaa !15
  br label %.sink.split

mps_reader_serving_from_accumulator.exit.thread:  ; preds = %5, %mps_reader_serving_from_accumulator.exit
  %.0.i6468 = phi i64 [ %12, %mps_reader_serving_from_accumulator.exit ], [ 0, %5 ]
  %25 = getelementptr inbounds nuw i8, ptr %0, i64 8
  %26 = load i64, ptr %25, align 8, !tbaa !14
  %27 = sub i64 %7, %.0.i6468
  %28 = sub i64 %26, %27
  %29 = icmp ult i64 %28, %1
  br i1 %29, label %30, label %36

30:                                               ; preds = %mps_reader_serving_from_accumulator.exit.thread
  %31 = icmp eq ptr %3, null
  br i1 %31, label %33, label %.thread

.thread:                                          ; preds = %30
  %32 = getelementptr inbounds nuw i8, ptr %.val, i64 %27
  store ptr %32, ptr %2, align 8, !tbaa !16
  br label %38

33:                                               ; preds = %30
  %.not60 = icmp eq i64 %28, 0
  br i1 %.not60, label %42, label %34

34:                                               ; preds = %33
  %35 = sub i64 %1, %28
  br label %.sink.split

36:                                               ; preds = %mps_reader_serving_from_accumulator.exit.thread
  %37 = getelementptr inbounds nuw i8, ptr %.val, i64 %27
  store ptr %37, ptr %2, align 8, !tbaa !16
  %.not59 = icmp eq ptr %3, null
  br i1 %.not59, label %39, label %38

38:                                               ; preds = %.thread, %36
  %.05171 = phi i64 [ %28, %.thread ], [ %1, %36 ]
  store i64 %.05171, ptr %3, align 8, !tbaa !17
  br label %39

39:                                               ; preds = %38, %36
  %.05172 = phi i64 [ %.05171, %38 ], [ %1, %36 ]
  %40 = add i64 %.05172, %7
  store i64 %40, ptr %6, align 8, !tbaa !15
  br label %.sink.split

.sink.split:                                      ; preds = %39, %23, %34
  %.sink = phi i64 [ %35, %34 ], [ 0, %23 ], [ 0, %39 ]
  %.0.ph = phi i32 [ -260, %34 ], [ 0, %23 ], [ 0, %39 ]
  %41 = getelementptr inbounds nuw i8, ptr %0, i64 32
  store i64 %.sink, ptr %41, align 8, !tbaa !18
  br label %42

42:                                               ; preds = %.sink.split, %33, %16, %4
  %.0 = phi i32 [ -1, %4 ], [ -261, %16 ], [ -260, %33 ], [ %.0.ph, %.sink.split ]
  ret i32 %.0
}